; Function Attrs: nounwind uwtable
define internal fastcc ptr @_init_l_Lean_Elab_Term_Op_elabLeftact___regBuiltin_Lean_Elab_Term_Op_elabLeftact__1___closed__2() unnamed_addr #0 {
  %1 = load ptr, ptr @l_Lean_Elab_Term_elabForIn___closed__1, align 8, !tbaa !4
  %2 = load ptr, ptr @l_Lean_Elab_Term_elabForIn___regBuiltin_Lean_Elab_Term_elabForIn__1___closed__1, align 8, !tbaa !4
  %3 = load ptr, ptr @l_Lean_Elab_Term_elabForIn___closed__3, align 8, !tbaa !4
  %4 = load ptr, ptr @l_Lean_Elab_Term_Op_elabBinOp___regBuiltin_Lean_Elab_Term_Op_elabBinOp__1___closed__1, align 8, !tbaa !4
  %5 = load ptr, ptr @l_Lean_Elab_Term_Op_elabLeftact___regBuiltin_Lean_Elab_Term_Op_elabLeftact__1___closed__1, align 8, !tbaa !4
  %6 = tail call ptr @l_Lean_Name_mkStr5(ptr noundef %1, ptr noundef %2, ptr noundef %3, ptr noundef %4, ptr noundef %5) #7
  ret ptr %6
}